target datalayout = "e-m:e-p270:32:32-p271:32:32-p272:64:64-i64:64-i128:128-f80:128-n8:16:32:64-S128"
target triple = "x86_64-pc-linux-gnu"

%union.pthread_mutex_t = type { %struct.__pthread_mutex_s }
%struct.__pthread_mutex_s = type { i32, i32, i32, i32, i32, i16, i16, %struct.__pthread_internal_list }
%struct.__pthread_internal_list = type { ptr, ptr }
%struct.job_record = type { i32, ptr, ptr, ptr, ptr, i16, i32, i32, i32, ptr, i32, ptr, ptr, i16, ptr, double, i64, ptr, ptr, ptr, ptr, ptr, ptr, i32, ptr, i32, i64, i64, i32, i32, ptr, i16, i64, i64, i8, i32, ptr, ptr, ptr, ptr, ptr, ptr, ptr, ptr, i32, ptr, ptr, i32, ptr, i32, ptr, i32, ptr, i32, ptr, ptr, ptr, ptr, ptr, ptr, i32, i16, i64, ptr, ptr, ptr, ptr, %struct.acct_policy_limit_set_t, i16, ptr, ptr, ptr, ptr, ptr, i32, ptr, ptr, ptr, ptr, ptr, i32, i32, ptr, ptr, ptr, i16, ptr, ptr, i8, ptr, ptr, i64, i64, i8, i32, i32, i8, i32, ptr, i32, i64, i32, ptr, ptr, ptr, i8, i16, i64, i32, ptr, ptr, ptr, ptr, ptr, i16, i32, ptr, ptr, ptr, ptr, i32, ptr, i32, i16, i64, ptr, i32, i32, ptr, i64, ptr, ptr, i64, i32, i32, i64, i32, i32, ptr, ptr, ptr, ptr, ptr, ptr, ptr, ptr, ptr, ptr, ptr, ptr, i32, ptr, i16, i16, i16, i16, ptr, i32, i32, i8, i64 }
%struct.acct_policy_limit_set_t = type { i16, i16, ptr }
%struct.job_fed_details_t = type { i32, ptr, i64, ptr, i64, ptr }
%struct.slurmdb_cluster_rec = type { ptr, i16, i64, %struct.sockaddr_storage, ptr, i32, i16, ptr, i16, %struct.slurmdb_cluster_fed_t, i32, %union.pthread_mutex_t, ptr, ptr, ptr, i16, ptr, ptr }
%struct.sockaddr_storage = type { i16, [118 x i8], i64 }
%struct.slurmdb_cluster_fed_t = type { ptr, i32, ptr, ptr, ptr, i32, i8, i8 }

@fed_mgr_cluster_rec = dso_local global ptr null, align 8
@.str.183 = private unnamed_addr constant [28 x i8] c"job %pJ not a federated job\00", align 1

; Function Attrs: nounwind uwtable
define dso_local i32 @fed_mgr_get_cluster_id(i32 noundef %0) #0 {
  %2 = alloca i32, align 4
  store i32 %0, ptr %2, align 4
  %3 = load i32, ptr %2, align 4
  %4 = lshr i32 %3, 26
  ret i32 %4
}

; Function Attrs: nounwind uwtable
define internal i32 @_is_fed_job(ptr noundef %0, ptr noundef %1) #0 {
  %3 = alloca i32, align 4
  %4 = alloca ptr, align 8
  %5 = alloca ptr, align 8
  store ptr %0, ptr %4, align 8
  store ptr %1, ptr %5, align 8
  %6 = load ptr, ptr @fed_mgr_cluster_rec, align 8
  %7 = icmp ne ptr %6, null
  br i1 %7, label %9, label %8

8:                                                ; preds = %2
  store i32 0, ptr %3, align 4
  br label %32

9:                                                ; preds = %2
  %10 = load ptr, ptr %4, align 8
  %11 = getelementptr inbounds nuw %struct.job_record, ptr %10, i32 0, i32 39
  %12 = load ptr, ptr %11, align 8
  %13 = icmp ne ptr %12, null
  br i1 %13, label %14, label %21

14:                                               ; preds = %9
  %15 = load ptr, ptr %4, align 8
  %16 = getelementptr inbounds nuw %struct.job_record, ptr %15, i32 0, i32 53
  %17 = load i32, ptr %16, align 8
  %18 = call i32 @fed_mgr_get_cluster_id(i32 noundef %17)
  %19 = load ptr, ptr %5, align 8
  store i32 %18, ptr %19, align 4
  %20 = icmp ne i32 %18, 0
  br i1 %20, label %31, label %21

21:                                               ; preds = %14, %9
  br label %22

22:                                               ; preds = %21
  br label %23

23:                                               ; preds = %22
  %24 = call i32 @get_log_level()
  %25 = icmp sge i32 %24, 6
  br i1 %25, label %26, label %28

26:                                               ; preds = %23
  %27 = load ptr, ptr %4, align 8
  call void (i32, ptr, ...) @log_var(i32 noundef 6, ptr noundef @.str.183, ptr noundef %27)
  br label %28

28:                                               ; preds = %26, %23
  br label %29

29:                                               ; preds = %28
  br label %30

30:                                               ; preds = %29
  store i32 0, ptr %3, align 4
  br label %32

31:                                               ; preds = %14
  store i32 1, ptr %3, align 4
  br label %32

32:                                               ; preds = %31, %30, %8
  %33 = load i32, ptr %3, align 4
  ret i32 %33
}

; Function Attrs: nounwind uwtable
define dso_local zeroext i1 @fed_mgr_is_tracker_only_job(ptr noundef %0) #0 {
  %2 = alloca i1, align 1
  %3 = alloca ptr, align 8
  %4 = alloca i8, align 1
  %5 = alloca i32, align 4
  %6 = alloca i32, align 4
  store ptr %0, ptr %3, align 8
  call void @llvm.lifetime.start.p0(i64 1, ptr %4) #9
  store i8 0, ptr %4, align 1
  call void @llvm.lifetime.start.p0(i64 4, ptr %5) #9
  %7 = load ptr, ptr %3, align 8
  %8 = call i32 @_is_fed_job(ptr noundef %7, ptr noundef %5)
  %9 = icmp ne i32 %8, 0
  br i1 %9, label %13, label %10

10:                                               ; preds = %1
  %11 = load i8, ptr %4, align 1, !range !11, !noundef !12
  %12 = trunc i8 %11 to i1
  store i1 %12, ptr %2, align 1
  store i32 1, ptr %6, align 4
  br label %75

13:                                               ; preds = %1
  %14 = load ptr, ptr %3, align 8
  %15 = getelementptr inbounds nuw %struct.job_record, ptr %14, i32 0, i32 39
  %16 = load ptr, ptr %15, align 8
  %17 = icmp ne ptr %16, null
  br i1 %17, label %18, label %48

18:                                               ; preds = %13
  %19 = load i32, ptr %5, align 4
  %20 = load ptr, ptr @fed_mgr_cluster_rec, align 8
  %21 = getelementptr inbounds nuw %struct.slurmdb_cluster_rec, ptr %20, i32 0, i32 9
  %22 = getelementptr inbounds nuw %struct.slurmdb_cluster_fed_t, ptr %21, i32 0, i32 1
  %23 = load i32, ptr %22, align 8
  %24 = icmp eq i32 %19, %23
  br i1 %24, label %25, label %48

25:                                               ; preds = %18
  %26 = load ptr, ptr %3, align 8
  %27 = getelementptr inbounds nuw %struct.job_record, ptr %26, i32 0, i32 39
  %28 = load ptr, ptr %27, align 8
  %29 = getelementptr inbounds nuw %struct.job_fed_details_t, ptr %28, i32 0, i32 2
  %30 = load i64, ptr %29, align 8
  %31 = icmp ne i64 %30, 0
  br i1 %31, label %32, label %48

32:                                               ; preds = %25
  %33 = load ptr, ptr %3, align 8
  %34 = getelementptr inbounds nuw %struct.job_record, ptr %33, i32 0, i32 39
  %35 = load ptr, ptr %34, align 8
  %36 = getelementptr inbounds nuw %struct.job_fed_details_t, ptr %35, i32 0, i32 2
  %37 = load i64, ptr %36, align 8
  %38 = load ptr, ptr @fed_mgr_cluster_rec, align 8
  %39 = getelementptr inbounds nuw %struct.slurmdb_cluster_rec, ptr %38, i32 0, i32 9
  %40 = getelementptr inbounds nuw %struct.slurmdb_cluster_fed_t, ptr %39, i32 0, i32 1
  %41 = load i32, ptr %40, align 8
  %42 = sub i32 %41, 1
  %43 = zext i32 %42 to i64
  %44 = shl i64 1, %43
  %45 = and i64 %37, %44
  %46 = icmp ne i64 %45, 0
  br i1 %46, label %48, label %47

47:                                               ; preds = %32
  store i8 1, ptr %4, align 1
  br label %48

48:                                               ; preds = %47, %32, %25, %18, %13
  %49 = load ptr, ptr %3, align 8
  %50 = getelementptr inbounds nuw %struct.job_record, ptr %49, i32 0, i32 39
  %51 = load ptr, ptr %50, align 8
  %52 = icmp ne ptr %51, null
  br i1 %52, label %53, label %72

53:                                               ; preds = %48
  %54 = load ptr, ptr %3, align 8
  %55 = getelementptr inbounds nuw %struct.job_record, ptr %54, i32 0, i32 39
  %56 = load ptr, ptr %55, align 8
  %57 = getelementptr inbounds nuw %struct.job_fed_details_t, ptr %56, i32 0, i32 0
  %58 = load i32, ptr %57, align 8
  %59 = icmp ne i32 %58, 0
  br i1 %59, label %60, label %72

60:                                               ; preds = %53
  %61 = load ptr, ptr %3, align 8
  %62 = getelementptr inbounds nuw %struct.job_record, ptr %61, i32 0, i32 39
  %63 = load ptr, ptr %62, align 8
  %64 = getelementptr inbounds nuw %struct.job_fed_details_t, ptr %63, i32 0, i32 0
  %65 = load i32, ptr %64, align 8
  %66 = load ptr, ptr @fed_mgr_cluster_rec, align 8
  %67 = getelementptr inbounds nuw %struct.slurmdb_cluster_rec, ptr %66, i32 0, i32 9
  %68 = getelementptr inbounds nuw %struct.slurmdb_cluster_fed_t, ptr %67, i32 0, i32 1
  %69 = load i32, ptr %68, align 8
  %70 = icmp ne i32 %65, %69
  br i1 %70, label %71, label %72

71:                                               ; preds = %60
  store i8 1, ptr %4, align 1
  br label %72

72:                                               ; preds = %71, %60, %53, %48
  %73 = load i8, ptr %4, align 1, !range !11, !noundef !12
  %74 = trunc i8 %73 to i1
  store i1 %74, ptr %2, align 1
  store i32 1, ptr %6, align 4
  br label %75

75:                                               ; preds = %72, %10
  call void @llvm.lifetime.end.p0(i64 4, ptr %5) #9
  call void @llvm.lifetime.end.p0(i64 1, ptr %4) #9
  %76 = load i1, ptr %2, align 1
  ret i1 %76
}