; Function Attrs: nounwind uwtable
define dso_local zeroext i1 @fed_mgr_is_tracker_only_job(ptr noundef %0) local_unnamed_addr #0 {
  %2 = load ptr, ptr @fed_mgr_cluster_rec, align 8
  %.not.i = icmp eq ptr %2, null
  br i1 %.not.i, label %_is_fed_job.exit.thread, label %3

3:                                                ; preds = %1
  %4 = getelementptr inbounds nuw i8, ptr %0, i64 280
  %5 = load ptr, ptr %4, align 8
  %.not4.i = icmp eq ptr %5, null
  br i1 %.not4.i, label %10, label %6

6:                                                ; preds = %3
  %7 = getelementptr inbounds nuw i8, ptr %0, i64 392
  %8 = load i32, ptr %7, align 8
  %9 = lshr i32 %8, 26
  %.not5.i = icmp ult i32 %8, 67108864
  br i1 %.not5.i, label %10, label %_is_fed_job.exit

10:                                               ; preds = %6, %3
  %11 = tail call i32 @get_log_level() #16
  %12 = icmp sgt i32 %11, 5
  br i1 %12, label %13, label %_is_fed_job.exit.thread

13:                                               ; preds = %10
  tail call void (i32, ptr, ...) @log_var(i32 noundef 6, ptr noundef nonnull @.str.183, ptr noundef nonnull %0) #16
  br label %_is_fed_job.exit.thread

_is_fed_job.exit:                                 ; preds = %6
  %14 = getelementptr inbounds nuw i8, ptr %2, i64 192
  %15 = load i32, ptr %14, align 8
  %16 = icmp eq i32 %9, %15
  br i1 %16, label %17, label %26

17:                                               ; preds = %_is_fed_job.exit
  %18 = getelementptr inbounds nuw i8, ptr %5, i64 16
  %19 = load i64, ptr %18, align 8
  %.not16 = icmp eq i64 %19, 0
  br i1 %.not16, label %26, label %20

20:                                               ; preds = %17
  %21 = add nsw i32 %9, -1
  %22 = zext nneg i32 %21 to i64
  %23 = xor i64 %19, -1
  %24 = lshr i64 %23, %22
  %25 = trunc i64 %24 to i1
  br label %26

26:                                               ; preds = %20, %17, %_is_fed_job.exit
  %.0.ph = phi i1 [ %25, %20 ], [ false, %_is_fed_job.exit ], [ false, %17 ]
  %27 = load i32, ptr %5, align 8
  %.not19 = icmp eq i32 %27, 0
  br i1 %.not19, label %_is_fed_job.exit.thread, label %28

28:                                               ; preds = %26
  %.not20 = icmp ne i32 %27, %15
  %spec.select21 = select i1 %.not20, i1 true, i1 %.0.ph
  br label %_is_fed_job.exit.thread

_is_fed_job.exit.thread:                          ; preds = %26, %28, %10, %13, %1
  %.09 = phi i1 [ false, %1 ], [ false, %13 ], [ false, %10 ], [ %.0.ph, %26 ], [ %spec.select21, %28 ]
  ret i1 %.09
}